target datalayout = "e-m:e-p270:32:32-p271:32:32-p272:64:64-i64:64-i128:128-f80:128-n8:16:32:64-S128"
target triple = "x86_64-pc-linux-gnu"

%"class.std::__cxx11::basic_string" = type { %"struct.std::__cxx11::basic_string<char>::_Alloc_hider", i64, %union.anon.0 }
%"struct.std::__cxx11::basic_string<char>::_Alloc_hider" = type { ptr }
%union.anon.0 = type { i64, [8 x i8] }
%"class.std::allocator" = type { i8 }
%"struct.pkpy::Str" = type { i32, i8, ptr, [16 x i8] }
%"struct.std::pair" = type <{ ptr, i32, [4 x i8] }>

@_ZTISt13runtime_error = external constant ptr
@.str.1 = private unnamed_addr constant [107 x i8] c"generated/home/dtcxzyw/WorkSpace/Projects/compilers/llvm-opt-benchmark/bench/pocketpy/pocketpy/src/str.cpp\00", align 1
@.str.2 = private unnamed_addr constant [2 x i8] c":\00", align 1
@.str.3 = private unnamed_addr constant [16 x i8] c" FATAL_ERROR()!\00", align 1

; Function Attrs: mustprogress uwtable
define linkonce_odr void @_ZStplIcSt11char_traitsIcESaIcEENSt7__cxx1112basic_stringIT_T0_T1_EEOS8_PKS5_(ptr dead_on_unwind noalias writable sret(%"class.std::__cxx11::basic_string") align 8 %0, ptr noundef nonnull align 8 dereferenceable(32) %1, ptr noundef %2) #4 comdat {
  %4 = alloca ptr, align 8
  %5 = alloca ptr, align 8
  %6 = alloca ptr, align 8
  store ptr %0, ptr %4, align 8
  store ptr %1, ptr %5, align 8
  store ptr %2, ptr %6, align 8
  %7 = load ptr, ptr %5, align 8
  %8 = load ptr, ptr %6, align 8
  %9 = call noundef nonnull align 8 dereferenceable(32) ptr @_ZNSt7__cxx1112basic_stringIcSt11char_traitsIcESaIcEE6appendEPKc(ptr noundef nonnull align 8 dereferenceable(32) %7, ptr noundef %8)
  call void @_ZNSt7__cxx1112basic_stringIcSt11char_traitsIcESaIcEEC1EOS4_(ptr noundef nonnull align 8 dereferenceable(32) %0, ptr noundef nonnull align 8 dereferenceable(32) %9) #3
  ret void
}

; Function Attrs: mustprogress uwtable
define linkonce_odr void @_ZStplIcSt11char_traitsIcESaIcEENSt7__cxx1112basic_stringIT_T0_T1_EEPKS5_OS8_(ptr dead_on_unwind noalias writable sret(%"class.std::__cxx11::basic_string") align 8 %0, ptr noundef %1, ptr noundef nonnull align 8 dereferenceable(32) %2) #4 comdat {
  %4 = alloca ptr, align 8
  %5 = alloca ptr, align 8
  %6 = alloca ptr, align 8
  store ptr %0, ptr %4, align 8
  store ptr %1, ptr %5, align 8
  store ptr %2, ptr %6, align 8
  %7 = load ptr, ptr %6, align 8
  %8 = load ptr, ptr %5, align 8
  %9 = call noundef nonnull align 8 dereferenceable(32) ptr @_ZNSt7__cxx1112basic_stringIcSt11char_traitsIcESaIcEE6insertEmPKc(ptr noundef nonnull align 8 dereferenceable(32) %7, i64 noundef 0, ptr noundef %8)
  call void @_ZNSt7__cxx1112basic_stringIcSt11char_traitsIcESaIcEEC1EOS4_(ptr noundef nonnull align 8 dereferenceable(32) %0, ptr noundef nonnull align 8 dereferenceable(32) %9) #3
  ret void
}

; Function Attrs: mustprogress uwtable
define void @_ZN4pkpy3StrC2ESt4pairIPciE(ptr noundef nonnull align 8 dereferenceable(32) %0, ptr %1, i32 %2) unnamed_addr #4 align 2 personality ptr @__gxx_personality_v0 {
  %4 = alloca %"struct.std::pair", align 8
  %5 = alloca ptr, align 8
  %6 = alloca i32, align 4
  %7 = alloca %"class.std::__cxx11::basic_string", align 8
  %8 = alloca %"class.std::__cxx11::basic_string", align 8
  %9 = alloca %"class.std::__cxx11::basic_string", align 8
  %10 = alloca %"class.std::__cxx11::basic_string", align 8
  %11 = alloca %"class.std::allocator", align 1
  %12 = alloca ptr, align 8
  %13 = alloca i32, align 4
  %14 = alloca %"class.std::__cxx11::basic_string", align 8
  %15 = alloca i1, align 1
  %16 = getelementptr inbounds { ptr, i32 }, ptr %4, i32 0, i32 0
  store ptr %1, ptr %16, align 8
  %17 = getelementptr inbounds { ptr, i32 }, ptr %4, i32 0, i32 1
  store i32 %2, ptr %17, align 8
  store ptr %0, ptr %5, align 8
  %18 = load ptr, ptr %5, align 8
  %19 = getelementptr inbounds %"struct.pkpy::Str", ptr %18, i32 0, i32 0
  %20 = getelementptr inbounds %"struct.std::pair", ptr %4, i32 0, i32 1
  %21 = load i32, ptr %20, align 8
  store i32 %21, ptr %19, align 8
  %22 = getelementptr inbounds %"struct.pkpy::Str", ptr %18, i32 0, i32 1
  store i8 1, ptr %22, align 4
  %23 = getelementptr inbounds %"struct.std::pair", ptr %4, i32 0, i32 0
  %24 = load ptr, ptr %23, align 8
  %25 = getelementptr inbounds %"struct.pkpy::Str", ptr %18, i32 0, i32 2
  store ptr %24, ptr %25, align 8
  store i32 0, ptr %6, align 4
  br label %26

26:                                               ; preds = %44, %3
  %27 = load i32, ptr %6, align 4
  %28 = getelementptr inbounds %"struct.pkpy::Str", ptr %18, i32 0, i32 0
  %29 = load i32, ptr %28, align 8
  %30 = icmp slt i32 %27, %29
  br i1 %30, label %31, label %47

31:                                               ; preds = %26
  %32 = getelementptr inbounds %"struct.pkpy::Str", ptr %18, i32 0, i32 2
  %33 = load ptr, ptr %32, align 8
  %34 = load i32, ptr %6, align 4
  %35 = sext i32 %34 to i64
  %36 = getelementptr inbounds i8, ptr %33, i64 %35
  %37 = load i8, ptr %36, align 1
  %38 = sext i8 %37 to i32
  %39 = call i32 @isascii(i32 noundef %38) #3
  %40 = icmp ne i32 %39, 0
  br i1 %40, label %43, label %41

41:                                               ; preds = %31
  %42 = getelementptr inbounds %"struct.pkpy::Str", ptr %18, i32 0, i32 1
  store i8 0, ptr %42, align 4
  br label %47

43:                                               ; preds = %31
  br label %44

44:                                               ; preds = %43
  %45 = load i32, ptr %6, align 4
  %46 = add nsw i32 %45, 1
  store i32 %46, ptr %6, align 4
  br label %26, !llvm.loop !9

47:                                               ; preds = %41, %26
  %48 = getelementptr inbounds %"struct.pkpy::Str", ptr %18, i32 0, i32 2
  %49 = load ptr, ptr %48, align 8
  %50 = getelementptr inbounds %"struct.pkpy::Str", ptr %18, i32 0, i32 0
  %51 = load i32, ptr %50, align 8
  %52 = sext i32 %51 to i64
  %53 = getelementptr inbounds i8, ptr %49, i64 %52
  %54 = load i8, ptr %53, align 1
  %55 = sext i8 %54 to i32
  %56 = icmp eq i32 %55, 0
  br i1 %56, label %91, label %57

57:                                               ; preds = %47
  store i1 true, ptr %15, align 1
  %58 = call ptr @__cxa_allocate_exception(i64 16) #3
  call void @_ZNSaIcEC1Ev(ptr noundef nonnull align 1 dereferenceable(1) %11) #3
  invoke void @_ZNSt7__cxx1112basic_stringIcSt11char_traitsIcESaIcEEC2IS3_EEPKcRKS3_(ptr noundef nonnull align 8 dereferenceable(32) %10, ptr noundef @.str.2, ptr noundef nonnull align 1 dereferenceable(1) %11)
          to label %59 unwind label %64

59:                                               ; preds = %57
  invoke void @_ZStplIcSt11char_traitsIcESaIcEENSt7__cxx1112basic_stringIT_T0_T1_EEPKS5_OS8_(ptr dead_on_unwind writable sret(%"class.std::__cxx11::basic_string") align 8 %9, ptr noundef @.str.1, ptr noundef nonnull align 8 dereferenceable(32) %10)
          to label %60 unwind label %68

60:                                               ; preds = %59
  call void @_ZNSt7__cxx119to_stringEi(ptr dead_on_unwind writable sret(%"class.std::__cxx11::basic_string") align 8 %14, i32 noundef 63) #3
  invoke void @_ZStplIcSt11char_traitsIcESaIcEENSt7__cxx1112basic_stringIT_T0_T1_EEOS8_S9_(ptr dead_on_unwind writable sret(%"class.std::__cxx11::basic_string") align 8 %8, ptr noundef nonnull align 8 dereferenceable(32) %9, ptr noundef nonnull align 8 dereferenceable(32) %14)
          to label %61 unwind label %72

61:                                               ; preds = %60
  invoke void @_ZStplIcSt11char_traitsIcESaIcEENSt7__cxx1112basic_stringIT_T0_T1_EEOS8_PKS5_(ptr dead_on_unwind writable sret(%"class.std::__cxx11::basic_string") align 8 %7, ptr noundef nonnull align 8 dereferenceable(32) %8, ptr noundef @.str.3)
          to label %62 unwind label %76

62:                                               ; preds = %61
  invoke void @_ZNSt13runtime_errorC1ERKNSt7__cxx1112basic_stringIcSt11char_traitsIcESaIcEEE(ptr noundef nonnull align 8 dereferenceable(16) %58, ptr noundef nonnull align 8 dereferenceable(32) %7)
          to label %63 unwind label %80

63:                                               ; preds = %62
  store i1 false, ptr %15, align 1
  invoke void @__cxa_throw(ptr %58, ptr @_ZTISt13runtime_error, ptr @_ZNSt13runtime_errorD1Ev) #13
          to label %97 unwind label %80

64:                                               ; preds = %57
  %65 = landingpad { ptr, i32 }
          cleanup
  %66 = extractvalue { ptr, i32 } %65, 0
  store ptr %66, ptr %12, align 8
  %67 = extractvalue { ptr, i32 } %65, 1
  store i32 %67, ptr %13, align 4
  br label %87

68:                                               ; preds = %59
  %69 = landingpad { ptr, i32 }
          cleanup
  %70 = extractvalue { ptr, i32 } %69, 0
  store ptr %70, ptr %12, align 8
  %71 = extractvalue { ptr, i32 } %69, 1
  store i32 %71, ptr %13, align 4
  br label %86

72:                                               ; preds = %60
  %73 = landingpad { ptr, i32 }
          cleanup
  %74 = extractvalue { ptr, i32 } %73, 0
  store ptr %74, ptr %12, align 8
  %75 = extractvalue { ptr, i32 } %73, 1
  store i32 %75, ptr %13, align 4
  br label %85

76:                                               ; preds = %61
  %77 = landingpad { ptr, i32 }
          cleanup
  %78 = extractvalue { ptr, i32 } %77, 0
  store ptr %78, ptr %12, align 8
  %79 = extractvalue { ptr, i32 } %77, 1
  store i32 %79, ptr %13, align 4
  br label %84

80:                                               ; preds = %63, %62
  %81 = landingpad { ptr, i32 }
          cleanup
  %82 = extractvalue { ptr, i32 } %81, 0
  store ptr %82, ptr %12, align 8
  %83 = extractvalue { ptr, i32 } %81, 1
  store i32 %83, ptr %13, align 4
  call void @_ZNSt7__cxx1112basic_stringIcSt11char_traitsIcESaIcEED1Ev(ptr noundef nonnull align 8 dereferenceable(32) %7) #3
  br label %84

84:                                               ; preds = %80, %76
  call void @_ZNSt7__cxx1112basic_stringIcSt11char_traitsIcESaIcEED1Ev(ptr noundef nonnull align 8 dereferenceable(32) %8) #3
  br label %85

85:                                               ; preds = %84, %72
  call void @_ZNSt7__cxx1112basic_stringIcSt11char_traitsIcESaIcEED1Ev(ptr noundef nonnull align 8 dereferenceable(32) %14) #3
  call void @_ZNSt7__cxx1112basic_stringIcSt11char_traitsIcESaIcEED1Ev(ptr noundef nonnull align 8 dereferenceable(32) %9) #3
  br label %86

86:                                               ; preds = %85, %68
  call void @_ZNSt7__cxx1112basic_stringIcSt11char_traitsIcESaIcEED1Ev(ptr noundef nonnull align 8 dereferenceable(32) %10) #3
  br label %87

87:                                               ; preds = %86, %64
  call void @_ZNSaIcED1Ev(ptr noundef nonnull align 1 dereferenceable(1) %11) #3
  %88 = load i1, ptr %15, align 1
  br i1 %88, label %89, label %90

89:                                               ; preds = %87
  call void @__cxa_free_exception(ptr %58) #3
  br label %90

90:                                               ; preds = %89, %87
  br label %92

91:                                               ; preds = %47
  ret void

92:                                               ; preds = %90
  %93 = load ptr, ptr %12, align 8
  %94 = load i32, ptr %13, align 4
  %95 = insertvalue { ptr, i32 } poison, ptr %93, 0
  %96 = insertvalue { ptr, i32 } %95, i32 %94, 1
  resume { ptr, i32 } %96

97:                                               ; preds = %63
  unreachable
}