; Function Attrs: mustprogress uwtable
define void @_ZN4pkpy3StrC2ESt4pairIPciE(ptr nocapture noundef nonnull writeonly align 8 dereferenceable(32) %0, ptr %1, i32 %2) unnamed_addr #3 align 2 personality ptr @__gxx_personality_v0 {
  %4 = alloca %"class.std::__cxx11::basic_string", align 8
  %5 = alloca %"class.std::__cxx11::basic_string", align 8
  %6 = alloca %"class.std::__cxx11::basic_string", align 8
  %7 = alloca %"class.std::__cxx11::basic_string", align 8
  %8 = alloca %"class.std::allocator", align 1
  %9 = alloca %"class.std::__cxx11::basic_string", align 8
  store i32 %2, ptr %0, align 8
  %10 = getelementptr inbounds i8, ptr %0, i64 4
  store i8 1, ptr %10, align 4
  %11 = getelementptr inbounds i8, ptr %0, i64 8
  store ptr %1, ptr %11, align 8
  %12 = icmp sgt i32 %2, 0
  br i1 %12, label %.lr.ph.preheader, label %.loopexit

.lr.ph.preheader:                                 ; preds = %3
  %wide.trip.count = zext nneg i32 %2 to i64
  br label %.lr.ph

13:                                               ; preds = %.lr.ph
  %indvars.iv.next = add nuw nsw i64 %indvars.iv, 1
  %exitcond.not = icmp eq i64 %indvars.iv.next, %wide.trip.count
  br i1 %exitcond.not, label %.loopexit, label %.lr.ph, !llvm.loop !11

.lr.ph:                                           ; preds = %.lr.ph.preheader, %13
  %indvars.iv = phi i64 [ 0, %.lr.ph.preheader ], [ %indvars.iv.next, %13 ]
  %14 = getelementptr inbounds i8, ptr %1, i64 %indvars.iv
  %15 = load i8, ptr %14, align 1
  %isascii = icmp sgt i8 %15, -1
  br i1 %isascii, label %13, label %16

16:                                               ; preds = %.lr.ph
  store i8 0, ptr %10, align 4
  br label %.loopexit

.loopexit:                                        ; preds = %13, %3, %16
  %17 = sext i32 %2 to i64
  %18 = getelementptr inbounds i8, ptr %1, i64 %17
  %19 = load i8, ptr %18, align 1
  %20 = icmp eq i8 %19, 0
  br i1 %20, label %43, label %21

21:                                               ; preds = %.loopexit
  %22 = tail call ptr @__cxa_allocate_exception(i64 16) #23
  call void @_ZNSaIcEC1Ev(ptr noundef nonnull align 1 dereferenceable(1) %8) #23
  invoke void @_ZNSt7__cxx1112basic_stringIcSt11char_traitsIcESaIcEEC2IS3_EEPKcRKS3_(ptr noundef nonnull align 8 dereferenceable(32) %7, ptr noundef nonnull @.str.2, ptr noundef nonnull align 1 dereferenceable(1) %8)
          to label %23 unwind label %.thread

23:                                               ; preds = %21
  %24 = invoke noundef nonnull align 8 dereferenceable(32) ptr @_ZNSt7__cxx1112basic_stringIcSt11char_traitsIcESaIcEE6insertEmPKc(ptr noundef nonnull align 8 dereferenceable(32) %7, i64 noundef 0, ptr noundef nonnull @.str.1)
          to label %25 unwind label %31

25:                                               ; preds = %23
  call void @_ZNSt7__cxx1112basic_stringIcSt11char_traitsIcESaIcEEC1EOS4_(ptr noundef nonnull align 8 dereferenceable(32) %6, ptr noundef nonnull align 8 dereferenceable(32) %24) #23
  call void @_ZNSt7__cxx119to_stringEi(ptr dead_on_unwind nonnull writable sret(%"class.std::__cxx11::basic_string") align 8 %9, i32 noundef 63) #23
  invoke void @_ZStplIcSt11char_traitsIcESaIcEENSt7__cxx1112basic_stringIT_T0_T1_EEOS8_S9_(ptr dead_on_unwind nonnull writable sret(%"class.std::__cxx11::basic_string") align 8 %5, ptr noundef nonnull align 8 dereferenceable(32) %6, ptr noundef nonnull align 8 dereferenceable(32) %9)
          to label %26 unwind label %33

26:                                               ; preds = %25
  %27 = invoke noundef nonnull align 8 dereferenceable(32) ptr @_ZNSt7__cxx1112basic_stringIcSt11char_traitsIcESaIcEE6appendEPKc(ptr noundef nonnull align 8 dereferenceable(32) %5, ptr noundef nonnull @.str.3)
          to label %28 unwind label %35

28:                                               ; preds = %26
  call void @_ZNSt7__cxx1112basic_stringIcSt11char_traitsIcESaIcEEC1EOS4_(ptr noundef nonnull align 8 dereferenceable(32) %4, ptr noundef nonnull align 8 dereferenceable(32) %27) #23
  invoke void @_ZNSt13runtime_errorC1ERKNSt7__cxx1112basic_stringIcSt11char_traitsIcESaIcEEE(ptr noundef nonnull align 8 dereferenceable(16) %22, ptr noundef nonnull align 8 dereferenceable(32) %4)
          to label %29 unwind label %37

29:                                               ; preds = %28
  invoke void @__cxa_throw(ptr nonnull %22, ptr nonnull @_ZTISt13runtime_error, ptr nonnull @_ZNSt13runtime_errorD1Ev) #24
          to label %45 unwind label %37

.thread:                                          ; preds = %21
  %30 = landingpad { ptr, i32 }
          cleanup
  call void @_ZNSaIcED1Ev(ptr noundef nonnull align 1 dereferenceable(1) %8) #23
  br label %42

31:                                               ; preds = %23
  %32 = landingpad { ptr, i32 }
          cleanup
  br label %41

33:                                               ; preds = %25
  %34 = landingpad { ptr, i32 }
          cleanup
  br label %40

35:                                               ; preds = %26
  %36 = landingpad { ptr, i32 }
          cleanup
  br label %39

37:                                               ; preds = %29, %28
  %.0 = phi i1 [ false, %29 ], [ true, %28 ]
  %38 = landingpad { ptr, i32 }
          cleanup
  call void @_ZNSt7__cxx1112basic_stringIcSt11char_traitsIcESaIcEED1Ev(ptr noundef nonnull align 8 dereferenceable(32) %4) #23
  br label %39

39:                                               ; preds = %37, %35
  %.pn = phi { ptr, i32 } [ %38, %37 ], [ %36, %35 ]
  %.1 = phi i1 [ %.0, %37 ], [ true, %35 ]
  call void @_ZNSt7__cxx1112basic_stringIcSt11char_traitsIcESaIcEED1Ev(ptr noundef nonnull align 8 dereferenceable(32) %5) #23
  br label %40

40:                                               ; preds = %39, %33
  %.pn.pn = phi { ptr, i32 } [ %.pn, %39 ], [ %34, %33 ]
  %.2 = phi i1 [ %.1, %39 ], [ true, %33 ]
  call void @_ZNSt7__cxx1112basic_stringIcSt11char_traitsIcESaIcEED1Ev(ptr noundef nonnull align 8 dereferenceable(32) %9) #23
  call void @_ZNSt7__cxx1112basic_stringIcSt11char_traitsIcESaIcEED1Ev(ptr noundef nonnull align 8 dereferenceable(32) %6) #23
  br label %41

41:                                               ; preds = %31, %40
  %.pn.pn.pn = phi { ptr, i32 } [ %.pn.pn, %40 ], [ %32, %31 ]
  %.3 = phi i1 [ %.2, %40 ], [ true, %31 ]
  call void @_ZNSt7__cxx1112basic_stringIcSt11char_traitsIcESaIcEED1Ev(ptr noundef nonnull align 8 dereferenceable(32) %7) #23
  call void @_ZNSaIcED1Ev(ptr noundef nonnull align 1 dereferenceable(1) %8) #23
  br i1 %.3, label %42, label %44

42:                                               ; preds = %.thread, %41
  %.pn.pn.pn.pn22 = phi { ptr, i32 } [ %30, %.thread ], [ %.pn.pn.pn, %41 ]
  call void @__cxa_free_exception(ptr %22) #23
  br label %44

43:                                               ; preds = %.loopexit
  ret void

44:                                               ; preds = %41, %42
  %.pn.pn.pn.pn21 = phi { ptr, i32 } [ %.pn.pn.pn, %41 ], [ %.pn.pn.pn.pn22, %42 ]
  resume { ptr, i32 } %.pn.pn.pn.pn21

45:                                               ; preds = %29
  unreachable
}